; ModuleID = '4/1681.c'
source_filename = "4/1681.c"
target datalayout = "e-m:e-p270:32:32-p271:32:32-p272:64:64-i64:64-f80:128-n8:16:32:64-S128"
target triple = "x86_64-pc-linux-gnu"

@.str = private unnamed_addr constant [6 x i8] c"%d %d\00", align 1
@row = common dso_local global i32 0, align 4
@col = common dso_local global i32 0, align 4
@a = common dso_local global i32* null, align 8
@.str.1 = private unnamed_addr constant [3 x i8] c"%d\00", align 1
@.str.2 = private unnamed_addr constant [4 x i8] c"\0A%d\00", align 1

; Function Attrs: noinline nounwind uwtable
define dso_local i32 @main() #0 {
  %1 = alloca i32, align 4
  %2 = alloca i32, align 4
  store i32 0, i32* %1, align 4
  %3 = call i32 (i8*, ...) @__isoc99_scanf(i8* getelementptr inbounds ([6 x i8], [6 x i8]* @.str, i64 0, i64 0), i32* @row, i32* @col)
  %4 = load i32, i32* @row, align 4
  %5 = load i32, i32* @col, align 4
  %6 = mul nsw i32 %4, %5
  %7 = sext i32 %6 to i64
  %8 = mul i64 %7, 4
  %9 = call noalias i8* @malloc(i64 %8) #3
  %10 = bitcast i8* %9 to i32*
  store i32* %10, i32** @a, align 8
  store i32 0, i32* %2, align 4
  br label %11

11:                                               ; preds = %23, %0
  %12 = load i32, i32* %2, align 4
  %13 = load i32, i32* @row, align 4
  %14 = load i32, i32* @col, align 4
  %15 = mul nsw i32 %13, %14
  %16 = icmp slt i32 %12, %15
  br i1 %16, label %17, label %26

17:                                               ; preds = %11
  %18 = load i32*, i32** @a, align 8
  %19 = load i32, i32* %2, align 4
  %20 = sext i32 %19 to i64
  %21 = getelementptr inbounds i32, i32* %18, i64 %20
  %22 = call i32 (i8*, ...) @__isoc99_scanf(i8* getelementptr inbounds ([3 x i8], [3 x i8]* @.str.1, i64 0, i64 0), i32* %21)
  br label %23

23:                                               ; preds = %17
  %24 = load i32, i32* %2, align 4
  %25 = add nsw i32 %24, 1
  store i32 %25, i32* %2, align 4
  br label %11

26:                                               ; preds = %11
  %27 = load i32*, i32** @a, align 8
  %28 = getelementptr inbounds i32, i32* %27, i64 0
  %29 = load i32, i32* %28, align 4
  %30 = call i32 (i8*, ...) @printf(i8* getelementptr inbounds ([3 x i8], [3 x i8]* @.str.1, i64 0, i64 0), i32 %29)
  store i32 1, i32* %2, align 4
  br label %31

31:                                               ; preds = %38, %26
  %32 = load i32, i32* %2, align 4
  %33 = load i32, i32* @col, align 4
  %34 = icmp slt i32 %32, %33
  br i1 %34, label %35, label %41

35:                                               ; preds = %31
  %36 = load i32, i32* %2, align 4
  %37 = load i32, i32* %2, align 4
  call void @out(i32 %36, i32 %37, i32 0)
  br label %38

38:                                               ; preds = %35
  %39 = load i32, i32* %2, align 4
  %40 = add nsw i32 %39, 1
  store i32 %40, i32* %2, align 4
  br label %31

41:                                               ; preds = %31
  store i32 1, i32* %2, align 4
  br label %42

42:                                               ; preds = %51, %41
  %43 = load i32, i32* %2, align 4
  %44 = load i32, i32* @row, align 4
  %45 = icmp slt i32 %43, %44
  br i1 %45, label %46, label %54

46:                                               ; preds = %42
  %47 = load i32, i32* %2, align 4
  %48 = load i32, i32* @col, align 4
  %49 = sub nsw i32 %48, 1
  %50 = load i32, i32* %2, align 4
  call void @out(i32 %47, i32 %49, i32 %50)
  br label %51

51:                                               ; preds = %46
  %52 = load i32, i32* %2, align 4
  %53 = add nsw i32 %52, 1
  store i32 %53, i32* %2, align 4
  br label %42

54:                                               ; preds = %42
  ret i32 0
}

declare dso_local i32 @__isoc99_scanf(i8*, ...) #1

; Function Attrs: nounwind
declare dso_local noalias i8* @malloc(i64) #2

declare dso_local i32 @printf(i8*, ...) #1

; Function Attrs: noinline nounwind uwtable
define dso_local void @out(i32 %0, i32 %1, i32 %2) #0 {
  %4 = alloca i32, align 4
  %5 = alloca i32, align 4
  %6 = alloca i32, align 4
  store i32 %0, i32* %4, align 4
  store i32 %1, i32* %5, align 4
  store i32 %2, i32* %6, align 4
  br label %7

7:                                                ; preds = %16, %3
  %8 = load i32, i32* %5, align 4
  %9 = icmp ne i32 %8, -1
  br i1 %9, label %10, label %14

10:                                               ; preds = %7
  %11 = load i32, i32* %6, align 4
  %12 = load i32, i32* @row, align 4
  %13 = icmp ne i32 %11, %12
  br label %14

14:                                               ; preds = %10, %7
  %15 = phi i1 [ false, %7 ], [ %13, %10 ]
  br i1 %15, label %16, label %32

16:                                               ; preds = %14
  %17 = load i32*, i32** @a, align 8
  %18 = load i32, i32* %6, align 4
  %19 = load i32, i32* @col, align 4
  %20 = mul nsw i32 %18, %19
  %21 = sext i32 %20 to i64
  %22 = getelementptr inbounds i32, i32* %17, i64 %21
  %23 = load i32, i32* %5, align 4
  %24 = sext i32 %23 to i64
  %25 = getelementptr inbounds i32, i32* %22, i64 %24
  %26 = load i32, i32* %25, align 4
  %27 = call i32 (i8*, ...) @printf(i8* getelementptr inbounds ([4 x i8], [4 x i8]* @.str.2, i64 0, i64 0), i32 %26)
  %28 = load i32, i32* %5, align 4
  %29 = add nsw i32 %28, -1
  store i32 %29, i32* %5, align 4
  %30 = load i32, i32* %6, align 4
  %31 = add nsw i32 %30, 1
  store i32 %31, i32* %6, align 4
  br label %7

32:                                               ; preds = %14
  ret void
}


!llvm.module.flags = !{!0}
!llvm.ident = !{!1}

!0 = !{i32 1, !"wchar_size", i32 4}
!1 = !{!"clang version 10.0.0-4ubuntu1 "}
